; Function Attrs: nounwind sspstrong uwtable
define internal noundef i64 @ossl_sslctx_set_session_cache_size(i64 noundef %0, i64 noundef returned %1) #0 {
  %3 = tail call ptr @rb_check_typeddata(i64 noundef %0, ptr noundef nonnull @ossl_sslctx_type) #9
  %4 = and i64 %1, 1
  %.not.i = icmp eq i64 %4, 0
  br i1 %.not.i, label %7, label %5

5:                                                ; preds = %2
  %6 = ashr i64 %1, 1
  br label %rb_num2long_inline.exit

7:                                                ; preds = %2
  %8 = tail call i64 @rb_num2long(i64 noundef %1) #9
  br label %rb_num2long_inline.exit

rb_num2long_inline.exit:                          ; preds = %5, %7
  %.0.i = phi i64 [ %6, %5 ], [ %8, %7 ]
  %9 = tail call i64 @SSL_CTX_ctrl(ptr noundef %3, i32 noundef 42, i64 noundef %.0.i, ptr noundef null) #9
  ret i64 %1
}